; Function Attrs: mustprogress nounwind uwtable
define dso_local void @_ZN4llvm12GlobalObject26setVCallVisibilityMetadataENS0_15VCallVisibilityE(ptr noundef nonnull align 8 dereferenceable(56) %0, i32 noundef %1) local_unnamed_addr #0 align 2 {
  %3 = alloca [1 x ptr], align 8
  %4 = tail call noundef zeroext i1 @_ZN4llvm5Value13eraseMetadataEj(ptr noundef nonnull align 8 dereferenceable(24) %0, i32 noundef 28)
  %5 = tail call noundef nonnull align 8 dereferenceable(8) ptr @_ZNK4llvm5Value10getContextEv(ptr noundef nonnull align 8 dereferenceable(24) %0) #23
  %6 = tail call noundef nonnull align 8 dereferenceable(8) ptr @_ZNK4llvm5Value10getContextEv(ptr noundef nonnull align 8 dereferenceable(24) %0) #23
  %7 = tail call noundef ptr @_ZN4llvm4Type10getInt64TyERNS_11LLVMContextE(ptr noundef nonnull align 8 dereferenceable(8) %6) #23
  %8 = zext i32 %1 to i64
  %9 = tail call noundef ptr @_ZN4llvm11ConstantInt3getEPNS_11IntegerTypeEmb(ptr noundef %7, i64 noundef %8, i1 noundef zeroext false) #23
  %10 = tail call noundef ptr @_ZN4llvm15ValueAsMetadata3getEPNS_5ValueE(ptr noundef %9)
  store ptr %10, ptr %3, align 8
  %11 = call noundef ptr @_ZN4llvm7MDTuple7getImplERNS_11LLVMContextENS_8ArrayRefIPNS_8MetadataEEENS4_11StorageTypeEb(ptr noundef nonnull align 8 dereferenceable(8) %5, ptr nonnull %3, i64 1, i32 noundef 0, i1 noundef zeroext true)
  call void @_ZN4llvm5Value11addMetadataEjRNS_6MDNodeE(ptr noundef nonnull align 8 dereferenceable(24) %0, i32 noundef 28, ptr noundef nonnull align 8 dereferenceable(16) %11)
  ret void
}